target datalayout = "e-m:e-p270:32:32-p271:32:32-p272:64:64-i64:64-i128:128-f80:128-n8:16:32:64-S128"
target triple = "x86_64-pc-linux-gnu"

%union.pthread_mutex_t = type { %struct.__pthread_mutex_s }
%struct.__pthread_mutex_s = type { i32, i32, i32, i32, i32, i16, i16, %struct.__pthread_internal_list }
%struct.__pthread_internal_list = type { ptr, ptr }

@sackd_lock = internal global %union.pthread_mutex_t zeroinitializer, align 8
@.str = private unnamed_addr constant [29 x i8] c"%s: pthread_mutex_lock(): %m\00", align 1
@sackd_nodes = internal global ptr null, align 8
@.str.2 = private unnamed_addr constant [31 x i8] c"%s: pthread_mutex_unlock(): %m\00", align 1
@__func__.sackd_mgr_load_state = private unnamed_addr constant [21 x i8] c"sackd_mgr_load_state\00", align 1
@.str.3 = private unnamed_addr constant [31 x i8] c"%s: restored state of %d nodes\00", align 1

; Function Attrs: nounwind uwtable
define dso_local i32 @sackd_mgr_load_state(ptr noundef %0, i16 noundef zeroext %1) #0 {
  %3 = alloca ptr, align 8
  %4 = alloca i16, align 2
  %5 = alloca i32, align 4
  %6 = alloca i32, align 4
  %7 = alloca i32, align 4
  store ptr %0, ptr %3, align 8
  store i16 %1, ptr %4, align 2
  call void @llvm.lifetime.start.p0(i64 4, ptr %5) #7
  br label %8

8:                                                ; preds = %2
  call void @llvm.lifetime.start.p0(i64 4, ptr %6) #7
  %9 = call i32 @pthread_mutex_lock(ptr noundef @sackd_lock) #7
  store i32 %9, ptr %6, align 4
  %10 = load i32, ptr %6, align 4
  %11 = icmp ne i32 %10, 0
  br i1 %11, label %12, label %15

12:                                               ; preds = %8
  %13 = load i32, ptr %6, align 4
  %14 = call ptr @__errno_location() #8
  store i32 %13, ptr %14, align 4
  call void (ptr, ...) @fatal_abort(ptr noundef @.str, ptr noundef @__func__.sackd_mgr_load_state) #9
  unreachable

15:                                               ; preds = %8
  call void @llvm.lifetime.end.p0(i64 4, ptr %6) #7
  br label %16

16:                                               ; preds = %15
  br label %17

17:                                               ; preds = %16
  br label %18

18:                                               ; preds = %17
  %19 = load ptr, ptr @sackd_nodes, align 8
  %20 = icmp ne ptr %19, null
  br i1 %20, label %21, label %23

21:                                               ; preds = %18
  %22 = load ptr, ptr @sackd_nodes, align 8
  call void @list_destroy(ptr noundef %22)
  br label %23

23:                                               ; preds = %21, %18
  store ptr null, ptr @sackd_nodes, align 8
  br label %24

24:                                               ; preds = %23
  br label %25

25:                                               ; preds = %24
  %26 = load ptr, ptr %3, align 8
  %27 = load i16, ptr %4, align 2
  %28 = call i32 @slurm_unpack_list(ptr noundef @sackd_nodes, ptr noundef @_unpack_node, ptr noundef @_destroy_sackd_node, ptr noundef %26, i16 noundef zeroext %27)
  store i32 %28, ptr %5, align 4
  br label %29

29:                                               ; preds = %25
  br label %30

30:                                               ; preds = %29
  %31 = call i32 @get_log_level()
  %32 = icmp sge i32 %31, 5
  br i1 %32, label %33, label %36

33:                                               ; preds = %30
  %34 = load ptr, ptr @sackd_nodes, align 8
  %35 = call i32 @list_count(ptr noundef %34)
  call void (i32, ptr, ...) @log_var(i32 noundef 5, ptr noundef @.str.3, ptr noundef @__func__.sackd_mgr_load_state, i32 noundef %35)
  br label %36

36:                                               ; preds = %33, %30
  br label %37

37:                                               ; preds = %36
  br label %38

38:                                               ; preds = %37
  br label %39

39:                                               ; preds = %38
  br label %40

40:                                               ; preds = %39
  br label %41

41:                                               ; preds = %40
  call void @llvm.lifetime.start.p0(i64 4, ptr %7) #7
  %42 = call i32 @pthread_mutex_unlock(ptr noundef @sackd_lock) #7
  store i32 %42, ptr %7, align 4
  %43 = load i32, ptr %7, align 4
  %44 = icmp ne i32 %43, 0
  br i1 %44, label %45, label %48

45:                                               ; preds = %41
  %46 = load i32, ptr %7, align 4
  %47 = call ptr @__errno_location() #8
  store i32 %46, ptr %47, align 4
  call void (ptr, ...) @fatal_abort(ptr noundef @.str.2, ptr noundef @__func__.sackd_mgr_load_state) #9
  unreachable

48:                                               ; preds = %41
  call void @llvm.lifetime.end.p0(i64 4, ptr %7) #7
  br label %49

49:                                               ; preds = %48
  br label %50

50:                                               ; preds = %49
  %51 = load i32, ptr %5, align 4
  call void @llvm.lifetime.end.p0(i64 4, ptr %5) #7
  ret i32 %51
}