; Function Attrs: nounwind uwtable
define dso_local i32 @sackd_mgr_load_state(ptr noundef %0, i16 noundef zeroext %1) local_unnamed_addr #0 {
  %3 = tail call i32 @pthread_mutex_lock(ptr noundef nonnull @sackd_lock) #7
  %.not = icmp eq i32 %3, 0
  br i1 %.not, label %6, label %4

4:                                                ; preds = %2
  %5 = tail call ptr @__errno_location() #8
  store i32 %3, ptr %5, align 4
  tail call void (ptr, ...) @fatal_abort(ptr noundef nonnull @.str, ptr noundef nonnull @__func__.sackd_mgr_load_state) #9
  unreachable

6:                                                ; preds = %2
  %7 = load ptr, ptr @sackd_nodes, align 8
  %.not8 = icmp eq ptr %7, null
  br i1 %.not8, label %9, label %8

8:                                                ; preds = %6
  tail call void @list_destroy(ptr noundef nonnull %7) #7
  br label %9

9:                                                ; preds = %8, %6
  store ptr null, ptr @sackd_nodes, align 8
  %10 = tail call i32 @slurm_unpack_list(ptr noundef nonnull @sackd_nodes, ptr noundef nonnull @_unpack_node, ptr noundef nonnull @_destroy_sackd_node, ptr noundef %0, i16 noundef zeroext %1) #7
  %11 = tail call i32 @get_log_level() #7
  %12 = icmp sgt i32 %11, 4
  br i1 %12, label %13, label %16

13:                                               ; preds = %9
  %14 = load ptr, ptr @sackd_nodes, align 8
  %15 = tail call i32 @list_count(ptr noundef %14) #7
  tail call void (i32, ptr, ...) @log_var(i32 noundef 5, ptr noundef nonnull @.str.3, ptr noundef nonnull @__func__.sackd_mgr_load_state, i32 noundef %15) #7
  br label %16

16:                                               ; preds = %9, %13
  %17 = tail call i32 @pthread_mutex_unlock(ptr noundef nonnull @sackd_lock) #7
  %.not9 = icmp eq i32 %17, 0
  br i1 %.not9, label %20, label %18

18:                                               ; preds = %16
  %19 = tail call ptr @__errno_location() #8
  store i32 %17, ptr %19, align 4
  tail call void (ptr, ...) @fatal_abort(ptr noundef nonnull @.str.2, ptr noundef nonnull @__func__.sackd_mgr_load_state) #9
  unreachable

20:                                               ; preds = %16
  ret i32 %10
}